; Function Attrs: mustprogress uwtable
define dso_local i64 @_ZN13cmSystemTools17MakeTempDirectoryERNSt7__cxx1112basic_stringIcSt11char_traitsIcESaIcEEEPKj(ptr noundef nonnull readonly align 8 captures(none) dereferenceable(32) %0, ptr noundef %1) local_unnamed_addr #3 align 2 {
  %3 = getelementptr inbounds nuw i8, ptr %0, i64 8
  %4 = load i64, ptr %3, align 8, !tbaa !25
  %5 = icmp eq i64 %4, 0
  br i1 %5, label %9, label %6

6:                                                ; preds = %2
  %7 = load ptr, ptr %0, align 8, !tbaa !13
  %8 = tail call i64 @_ZN13cmSystemTools17MakeTempDirectoryEPcPKj(ptr noundef nonnull %7, ptr noundef %1)
  br label %9

9:                                                ; preds = %2, %6
  %.sroa.0.0 = phi i64 [ %8, %6 ], [ 94489280513, %2 ]
  ret i64 %.sroa.0.0
}